target datalayout = "e-m:e-p270:32:32-p271:32:32-p272:64:64-i64:64-i128:128-f80:128-n8:16:32:64-S128"
target triple = "x86_64-pc-linux-gnu"

; Function Attrs: inlinehint nounwind uwtable
define internal i32 @Abc_TtGetQua(ptr noundef %0, i32 noundef %1) #3 {
  %3 = alloca ptr, align 8
  %4 = alloca i32, align 4
  store ptr %0, ptr %3, align 8, !tbaa !3
  store i32 %1, ptr %4, align 4, !tbaa !8
  %5 = load ptr, ptr %3, align 8, !tbaa !3
  %6 = load i32, ptr %4, align 4, !tbaa !8
  %7 = ashr i32 %6, 5
  %8 = sext i32 %7 to i64
  %9 = getelementptr inbounds i64, ptr %5, i64 %8
  %10 = load i64, ptr %9, align 8, !tbaa !13
  %11 = load i32, ptr %4, align 4, !tbaa !8
  %12 = shl i32 %11, 1
  %13 = and i32 %12, 63
  %14 = zext i32 %13 to i64
  %15 = lshr i64 %10, %14
  %16 = trunc i64 %15 to i32
  %17 = and i32 %16, 3
  ret i32 %17
}

; Function Attrs: nounwind uwtable
define i32 @Abc_TtGetCM1(ptr noundef %0, i32 noundef %1) #0 {
  %3 = alloca ptr, align 8
  %4 = alloca i32, align 4
  %5 = alloca [4 x i32], align 16
  %6 = alloca i32, align 4
  %7 = alloca i32, align 4
  %8 = alloca i32, align 4
  store ptr %0, ptr %3, align 8, !tbaa !3
  store i32 %1, ptr %4, align 4, !tbaa !8
  call void @llvm.lifetime.start.p0(i64 16, ptr %5) #12
  call void @llvm.memset.p0.i64(ptr align 16 %5, i8 0, i64 16, i1 false)
  call void @llvm.lifetime.start.p0(i64 4, ptr %6) #12
  call void @llvm.lifetime.start.p0(i64 4, ptr %7) #12
  store i32 0, ptr %7, align 4, !tbaa !8
  call void @llvm.lifetime.start.p0(i64 4, ptr %8) #12
  %9 = load i32, ptr %4, align 4, !tbaa !8
  %10 = sub nsw i32 %9, 1
  %11 = shl i32 1, %10
  store i32 %11, ptr %8, align 4, !tbaa !8
  store i32 0, ptr %6, align 4, !tbaa !8
  br label %12

12:                                               ; preds = %24, %2
  %13 = load i32, ptr %6, align 4, !tbaa !8
  %14 = load i32, ptr %8, align 4, !tbaa !8
  %15 = icmp slt i32 %13, %14
  br i1 %15, label %16, label %27

16:                                               ; preds = %12
  %17 = load ptr, ptr %3, align 8, !tbaa !3
  %18 = load i32, ptr %6, align 4, !tbaa !8
  %19 = call i32 @Abc_TtGetQua(ptr noundef %17, i32 noundef %18)
  %20 = sext i32 %19 to i64
  %21 = getelementptr inbounds [4 x i32], ptr %5, i64 0, i64 %20
  %22 = load i32, ptr %21, align 4, !tbaa !8
  %23 = add nsw i32 %22, 1
  store i32 %23, ptr %21, align 4, !tbaa !8
  br label %24

24:                                               ; preds = %16
  %25 = load i32, ptr %6, align 4, !tbaa !8
  %26 = add nsw i32 %25, 1
  store i32 %26, ptr %6, align 4, !tbaa !8
  br label %12, !llvm.loop !10

27:                                               ; preds = %12
  store i32 0, ptr %6, align 4, !tbaa !8
  br label %28

28:                                               ; preds = %40, %27
  %29 = load i32, ptr %6, align 4, !tbaa !8
  %30 = icmp slt i32 %29, 4
  br i1 %30, label %31, label %43

31:                                               ; preds = %28
  %32 = load i32, ptr %6, align 4, !tbaa !8
  %33 = sext i32 %32 to i64
  %34 = getelementptr inbounds [4 x i32], ptr %5, i64 0, i64 %33
  %35 = load i32, ptr %34, align 4, !tbaa !8
  %36 = icmp sgt i32 %35, 0
  %37 = zext i1 %36 to i32
  %38 = load i32, ptr %7, align 4, !tbaa !8
  %39 = add nsw i32 %38, %37
  store i32 %39, ptr %7, align 4, !tbaa !8
  br label %40

40:                                               ; preds = %31
  %41 = load i32, ptr %6, align 4, !tbaa !8
  %42 = add nsw i32 %41, 1
  store i32 %42, ptr %6, align 4, !tbaa !8
  br label %28, !llvm.loop !12

43:                                               ; preds = %28
  %44 = load i32, ptr %7, align 4, !tbaa !8
  call void @llvm.lifetime.end.p0(i64 4, ptr %8) #12
  call void @llvm.lifetime.end.p0(i64 4, ptr %7) #12
  call void @llvm.lifetime.end.p0(i64 4, ptr %6) #12
  call void @llvm.lifetime.end.p0(i64 16, ptr %5) #12
  ret i32 %44
}