; Function Attrs: nofree norecurse nosync nounwind memory(argmem: read) uwtable
define i32 @Abc_TtGetCM1(ptr noundef readonly captures(none) %0, i32 noundef %1) local_unnamed_addr #0 {
  %3 = alloca [4 x i32], align 16
  call void @llvm.lifetime.start.p0(i64 16, ptr nonnull %3) #24
  call void @llvm.memset.p0.i64(ptr noundef nonnull align 16 dereferenceable(16) %3, i8 0, i64 16, i1 false)
  %4 = add nsw i32 %1, -1
  %.not = icmp eq i32 %4, 31
  br i1 %.not, label %.preheader.preheader, label %.lr.ph.preheader

.lr.ph.preheader:                                 ; preds = %2
  %5 = shl nuw i32 1, %4
  %smax = tail call i32 @llvm.smax.i32(i32 %5, i32 1)
  br label %.lr.ph

.lr.ph:                                           ; preds = %.lr.ph.preheader, %.lr.ph
  %.011 = phi i32 [ %18, %.lr.ph ], [ 0, %.lr.ph.preheader ]
  %6 = lshr i32 %.011, 5
  %7 = zext nneg i32 %6 to i64
  %8 = getelementptr inbounds nuw i64, ptr %0, i64 %7
  %9 = load i64, ptr %8, align 8, !tbaa !3
  %10 = shl nuw i32 %.011, 1
  %11 = and i32 %10, 62
  %12 = zext nneg i32 %11 to i64
  %13 = lshr i64 %9, %12
  %14 = and i64 %13, 3
  %15 = getelementptr inbounds nuw [4 x i32], ptr %3, i64 0, i64 %14
  %16 = load i32, ptr %15, align 4, !tbaa !7
  %17 = add nsw i32 %16, 1
  store i32 %17, ptr %15, align 4, !tbaa !7
  %18 = add nuw nsw i32 %.011, 1
  %exitcond.not = icmp eq i32 %18, %smax
  br i1 %exitcond.not, label %.preheader.preheader, label %.lr.ph, !llvm.loop !9

.preheader.preheader:                             ; preds = %.lr.ph, %2
  br label %.preheader

.preheader:                                       ; preds = %.preheader.preheader, %.preheader
  %indvars.iv = phi i64 [ %indvars.iv.next, %.preheader ], [ 0, %.preheader.preheader ]
  %.01012 = phi i32 [ %23, %.preheader ], [ 0, %.preheader.preheader ]
  %19 = getelementptr inbounds nuw [4 x i32], ptr %3, i64 0, i64 %indvars.iv
  %20 = load i32, ptr %19, align 4, !tbaa !7
  %21 = icmp sgt i32 %20, 0
  %22 = zext i1 %21 to i32
  %23 = add nuw nsw i32 %.01012, %22
  %indvars.iv.next = add nuw nsw i64 %indvars.iv, 1
  %exitcond15.not = icmp eq i64 %indvars.iv.next, 4
  br i1 %exitcond15.not, label %24, label %.preheader, !llvm.loop !11

24:                                               ; preds = %.preheader
  call void @llvm.lifetime.end.p0(i64 16, ptr nonnull %3) #24
  ret i32 %23
}